; Function Attrs: nounwind uwtable
define hidden i32 @EVP_EncryptFinal_ex(ptr noundef %0, ptr noundef %1, ptr noundef writeonly captures(none) %2) local_unnamed_addr #0 {
  %4 = load ptr, ptr %0, align 8, !tbaa !6
  %5 = getelementptr inbounds nuw i8, ptr %4, i64 20
  %6 = load i32, ptr %5, align 4, !tbaa !17
  %7 = and i32 %6, 1024
  %.not = icmp eq i32 %7, 0
  br i1 %.not, label %14, label %8

8:                                                ; preds = %3
  %9 = getelementptr inbounds nuw i8, ptr %4, i64 40
  %10 = load ptr, ptr %9, align 8, !tbaa !30
  %11 = tail call i32 %10(ptr noundef nonnull %0, ptr noundef %1, ptr noundef null, i64 noundef 0) #14
  %12 = icmp slt i32 %11, 0
  br i1 %12, label %44, label %13

13:                                               ; preds = %8
  store i32 %11, ptr %2, align 4, !tbaa !31
  br label %44

14:                                               ; preds = %3
  %15 = getelementptr inbounds nuw i8, ptr %4, i64 4
  %16 = load i32, ptr %15, align 4, !tbaa !28
  %17 = icmp eq i32 %16, 1
  br i1 %17, label %18, label %19

18:                                               ; preds = %14
  store i32 0, ptr %2, align 4, !tbaa !31
  br label %44

19:                                               ; preds = %14
  %20 = getelementptr inbounds nuw i8, ptr %0, i64 100
  %21 = load i32, ptr %20, align 4, !tbaa !26
  %22 = getelementptr inbounds nuw i8, ptr %0, i64 32
  %23 = load i32, ptr %22, align 8, !tbaa !22
  %24 = and i32 %23, 2048
  %.not35 = icmp eq i32 %24, 0
  br i1 %.not35, label %28, label %25

25:                                               ; preds = %19
  %.not37 = icmp eq i32 %21, 0
  br i1 %.not37, label %27, label %26

26:                                               ; preds = %25
  tail call void @ERR_put_error(i32 noundef 30, i32 noundef 0, i32 noundef 106, ptr noundef nonnull @.str, i32 noundef 347) #14
  br label %44

27:                                               ; preds = %25
  store i32 0, ptr %2, align 4, !tbaa !31
  br label %44

28:                                               ; preds = %19
  %29 = icmp ult i32 %21, %16
  br i1 %29, label %.lr.ph, label %._crit_edge

.lr.ph:                                           ; preds = %28
  %30 = sub nuw i32 %16, %21
  %31 = trunc i32 %30 to i8
  %32 = zext i32 %21 to i64
  %33 = getelementptr i8, ptr %0, i64 %32
  %scevgep = getelementptr i8, ptr %33, i64 68
  %34 = xor i32 %21, -1
  %35 = add i32 %16, %34
  %36 = zext i32 %35 to i64
  %37 = add nuw nsw i64 %36, 1
  tail call void @llvm.memset.p0.i64(ptr noundef nonnull align 1 dereferenceable(1) %scevgep, i8 %31, i64 %37, i1 false), !tbaa !32
  br label %._crit_edge

._crit_edge:                                      ; preds = %.lr.ph, %28
  %38 = getelementptr inbounds nuw i8, ptr %4, i64 40
  %39 = load ptr, ptr %38, align 8, !tbaa !30
  %40 = getelementptr inbounds nuw i8, ptr %0, i64 68
  %41 = zext i32 %16 to i64
  %42 = tail call i32 %39(ptr noundef nonnull %0, ptr noundef %1, ptr noundef nonnull %40, i64 noundef %41) #14
  %.not36 = icmp eq i32 %42, 0
  br i1 %.not36, label %44, label %43

43:                                               ; preds = %._crit_edge
  store i32 %16, ptr %2, align 4, !tbaa !31
  br label %44

44:                                               ; preds = %._crit_edge, %43, %8, %27, %26, %18, %13
  %.0 = phi i32 [ 1, %13 ], [ 1, %18 ], [ 0, %26 ], [ 1, %27 ], [ 0, %8 ], [ %42, %43 ], [ 0, %._crit_edge ]
  ret i32 %.0
}